target datalayout = "e-m:e-p270:32:32-p271:32:32-p272:64:64-i64:64-i128:128-f80:128-n8:16:32:64-S128"
target triple = "x86_64-pc-linux-gnu"

%struct._zend_executor_globals = type { %struct._zval_struct, %struct._zval_struct, [32 x ptr], ptr, ptr, %struct._zend_array, %struct._zend_array, ptr, i32, i32, ptr, ptr, ptr, ptr, ptr, ptr, i64, ptr, ptr, i32, i32, i64, i32, i32, i32, i8, i8, %struct.zend_atomic_bool_s, %struct.zend_atomic_bool_s, ptr, i64, ptr, ptr, %struct._zend_array, %struct._zend_array, i32, i8, %struct._zval_struct, %struct._zval_struct, %struct._zend_stack, %struct._zend_stack, %struct._zend_stack, ptr, i32, i32, i64, ptr, ptr, ptr, %struct._zend_objects_store, ptr, ptr, ptr, [3 x %struct._zend_op], ptr, i8, i8, i64, i32, i32, ptr, [16 x %struct._HashTableIterator], ptr, %union._zend_function, %struct._zend_op, %struct._zend_array, i64, %struct.zend_get_gc_buffer, ptr, ptr, ptr, i64, i8, i32, ptr, ptr, i64, %struct._zend_call_stack, i64, i64, [6 x ptr] }
%struct.zend_atomic_bool_s = type { i8 }
%struct._zval_struct = type { %union._zend_value, %union.anon.3, %union.anon.6 }
%union._zend_value = type { i64 }
%union.anon.3 = type { i32 }
%union.anon.6 = type { i32 }
%struct._zend_stack = type { i32, i32, i32, ptr }
%struct._zend_objects_store = type { ptr, i32, i32, i32 }
%struct._HashTableIterator = type { ptr, i32, i32 }
%union._zend_function = type { %struct._zend_op_array }
%struct._zend_op_array = type { i8, [3 x i8], i32, ptr, ptr, ptr, i32, i32, ptr, ptr, ptr, ptr, i32, i32, i32, i32, ptr, ptr, ptr, ptr, ptr, i32, i32, ptr, ptr, ptr, i32, i32, i32, i32, ptr, ptr, [6 x ptr] }
%struct._zend_op = type { ptr, %union._znode_op, %union._znode_op, %union._znode_op, i32, i32, i8, i8, i8, i8 }
%union._znode_op = type { i32 }
%struct._zend_array = type { %struct._zend_refcounted_h, %union.anon.0, i32, %union.anon.1, i32, i32, i32, i32, i64, ptr }
%struct._zend_refcounted_h = type { i32, %union.anon }
%union.anon = type { i32 }
%union.anon.0 = type { i32 }
%union.anon.1 = type { ptr }
%struct.zend_get_gc_buffer = type { ptr, ptr, ptr }
%struct._zend_call_stack = type { ptr, i64 }
%struct._spl_SplObjectStorage = type { %struct._zend_array, i64, i32, i64, ptr, %struct._zend_object }
%struct._zend_object = type { %struct._zend_refcounted_h, i32, ptr, ptr, ptr, [1 x %struct._zval_struct] }
%struct._zend_execute_data = type { ptr, ptr, ptr, ptr, %struct._zval_struct, ptr, ptr, ptr, ptr }
%struct._spl_SplObjectStorageElement = type { ptr, %struct._zval_struct }

@.str.1 = private unnamed_addr constant [2 x i8] c"O\00", align 1
@spl_ce_SplObjectStorage = global ptr null, align 8
@executor_globals = external global %struct._zend_executor_globals, align 8

; Function Attrs: nounwind uwtable
define internal ptr @spl_object_storage_from_obj(ptr noundef %0) #0 {
  %2 = alloca ptr, align 8
  store ptr %0, ptr %2, align 8
  %3 = load ptr, ptr %2, align 8
  %4 = getelementptr inbounds i8, ptr %3, i64 -88
  ret ptr %4
}

; Function Attrs: nounwind uwtable
define hidden void @zim_SplObjectStorage_removeAllExcept(ptr noundef %0, ptr noundef %1) #0 {
  %3 = alloca ptr, align 8
  %4 = alloca ptr, align 8
  %5 = alloca ptr, align 8
  %6 = alloca ptr, align 8
  %7 = alloca ptr, align 8
  %8 = alloca ptr, align 8
  %9 = alloca ptr, align 8
  %10 = alloca ptr, align 8
  %11 = alloca ptr, align 8
  %12 = alloca i32, align 4
  %13 = alloca i64, align 8
  %14 = alloca ptr, align 8
  %15 = alloca ptr, align 8
  store ptr %0, ptr %5, align 8
  store ptr %1, ptr %6, align 8
  %16 = load ptr, ptr %5, align 8
  %17 = getelementptr inbounds %struct._zend_execute_data, ptr %16, i32 0, i32 4
  %18 = getelementptr inbounds %struct._zval_struct, ptr %17, i32 0, i32 0
  %19 = load ptr, ptr %18, align 8
  %20 = call ptr @spl_object_storage_from_obj(ptr noundef %19)
  store ptr %20, ptr %8, align 8
  %21 = load ptr, ptr %5, align 8
  %22 = getelementptr inbounds %struct._zend_execute_data, ptr %21, i32 0, i32 4
  %23 = getelementptr inbounds %struct._zval_struct, ptr %22, i32 0, i32 2
  %24 = load i32, ptr %23, align 4
  %25 = load ptr, ptr @spl_ce_SplObjectStorage, align 8
  %26 = call i32 (i32, ptr, ...) @zend_parse_parameters(i32 noundef %24, ptr noundef @.str.1, ptr noundef %7, ptr noundef %25)
  %27 = icmp eq i32 %26, -1
  br i1 %27, label %28, label %33

28:                                               ; preds = %2
  br label %29

29:                                               ; preds = %28
  %30 = load ptr, ptr getelementptr inbounds (%struct._zend_executor_globals, ptr @executor_globals, i32 0, i32 50), align 8
  %31 = icmp ne ptr %30, null
  call void @llvm.assume(i1 %31)
  br label %115

32:                                               ; No predecessors!
  br label %33

33:                                               ; preds = %32, %2
  %34 = load ptr, ptr %7, align 8
  %35 = getelementptr inbounds %struct._zval_struct, ptr %34, i32 0, i32 0
  %36 = load ptr, ptr %35, align 8
  %37 = call ptr @spl_object_storage_from_obj(ptr noundef %36)
  store ptr %37, ptr %9, align 8
  br label %38

38:                                               ; preds = %33
  %39 = load ptr, ptr %8, align 8
  %40 = getelementptr inbounds %struct._spl_SplObjectStorage, ptr %39, i32 0, i32 0
  store ptr %40, ptr %11, align 8
  %41 = load ptr, ptr %11, align 8
  %42 = getelementptr inbounds %struct._zend_array, ptr %41, i32 0, i32 4
  %43 = load i32, ptr %42, align 8
  store i32 %43, ptr %12, align 4
  %44 = load ptr, ptr %11, align 8
  %45 = getelementptr inbounds %struct._zend_array, ptr %44, i32 0, i32 1
  %46 = load i32, ptr %45, align 8
  %47 = xor i32 %46, -1
  %48 = and i32 %47, 4
  %49 = zext i32 %48 to i64
  %50 = mul i64 %49, 4
  %51 = add i64 16, %50
  store i64 %51, ptr %13, align 8
  %52 = load ptr, ptr %11, align 8
  %53 = getelementptr inbounds %struct._zend_array, ptr %52, i32 0, i32 3
  %54 = load ptr, ptr %53, align 8
  store ptr %54, ptr %14, align 8
  br label %55

55:                                               ; preds = %87, %38
  %56 = load i32, ptr %12, align 4
  %57 = icmp ugt i32 %56, 0
  br i1 %57, label %58, label %93

58:                                               ; preds = %55
  %59 = load ptr, ptr %14, align 8
  store ptr %59, ptr %3, align 8
  %60 = load ptr, ptr %3, align 8
  %61 = getelementptr inbounds %struct._zval_struct, ptr %60, i32 0, i32 1
  %62 = load i8, ptr %61, align 8
  %63 = zext i8 %62 to i32
  %64 = icmp eq i32 %63, 0
  %65 = xor i1 %64, true
  %66 = xor i1 %65, true
  %67 = zext i1 %66 to i32
  %68 = sext i32 %67 to i64
  %69 = icmp ne i64 %68, 0
  br i1 %69, label %70, label %71

70:                                               ; preds = %58
  br label %87

71:                                               ; preds = %58
  %72 = load ptr, ptr %14, align 8
  %73 = getelementptr inbounds %struct._zval_struct, ptr %72, i32 0, i32 0
  %74 = load ptr, ptr %73, align 8
  store ptr %74, ptr %10, align 8
  %75 = load ptr, ptr %9, align 8
  %76 = load ptr, ptr %10, align 8
  %77 = getelementptr inbounds %struct._spl_SplObjectStorageElement, ptr %76, i32 0, i32 0
  %78 = load ptr, ptr %77, align 8
  %79 = call zeroext i1 @spl_object_storage_contains(ptr noundef %75, ptr noundef %78)
  br i1 %79, label %86, label %80

80:                                               ; preds = %71
  %81 = load ptr, ptr %8, align 8
  %82 = load ptr, ptr %10, align 8
  %83 = getelementptr inbounds %struct._spl_SplObjectStorageElement, ptr %82, i32 0, i32 0
  %84 = load ptr, ptr %83, align 8
  %85 = call i32 @spl_object_storage_detach(ptr noundef %81, ptr noundef %84)
  br label %86

86:                                               ; preds = %80, %71
  br label %87

87:                                               ; preds = %86, %70
  %88 = load ptr, ptr %14, align 8
  %89 = load i64, ptr %13, align 8
  %90 = getelementptr inbounds i8, ptr %88, i64 %89
  store ptr %90, ptr %14, align 8
  %91 = load i32, ptr %12, align 4
  %92 = add i32 %91, -1
  store i32 %92, ptr %12, align 4
  br label %55

93:                                               ; preds = %55
  br label %94

94:                                               ; preds = %93
  %95 = load ptr, ptr %8, align 8
  %96 = getelementptr inbounds %struct._spl_SplObjectStorage, ptr %95, i32 0, i32 0
  %97 = load ptr, ptr %8, align 8
  %98 = getelementptr inbounds %struct._spl_SplObjectStorage, ptr %97, i32 0, i32 2
  call void @zend_hash_internal_pointer_reset_ex(ptr noundef %96, ptr noundef %98)
  %99 = load ptr, ptr %8, align 8
  %100 = getelementptr inbounds %struct._spl_SplObjectStorage, ptr %99, i32 0, i32 1
  store i64 0, ptr %100, align 8
  br label %101

101:                                              ; preds = %94
  br label %102

102:                                              ; preds = %101
  %103 = load ptr, ptr %6, align 8
  store ptr %103, ptr %15, align 8
  %104 = load ptr, ptr %8, align 8
  %105 = getelementptr inbounds %struct._spl_SplObjectStorage, ptr %104, i32 0, i32 0
  store ptr %105, ptr %4, align 8
  %106 = load ptr, ptr %4, align 8
  %107 = getelementptr inbounds %struct._zend_array, ptr %106, i32 0, i32 5
  %108 = load i32, ptr %107, align 4
  %109 = zext i32 %108 to i64
  %110 = load ptr, ptr %15, align 8
  %111 = getelementptr inbounds %struct._zval_struct, ptr %110, i32 0, i32 0
  store i64 %109, ptr %111, align 8
  %112 = load ptr, ptr %15, align 8
  %113 = getelementptr inbounds %struct._zval_struct, ptr %112, i32 0, i32 1
  store i32 4, ptr %113, align 8
  br label %114

114:                                              ; preds = %102
  br label %115

115:                                              ; preds = %114, %29
  ret void
}