; Function Attrs: nounwind uwtable
define hidden void @zim_SplObjectStorage_removeAllExcept(ptr nocapture noundef readonly %0, ptr nocapture noundef writeonly %1) #0 {
  %3 = alloca ptr, align 8
  %4 = getelementptr inbounds i8, ptr %0, i64 32
  %5 = load ptr, ptr %4, align 8
  %6 = getelementptr inbounds i8, ptr %5, i64 -88
  %7 = getelementptr inbounds i8, ptr %0, i64 44
  %8 = load i32, ptr %7, align 4
  %9 = load ptr, ptr @spl_ce_SplObjectStorage, align 8
  %10 = call i32 (i32, ptr, ...) @zend_parse_parameters(i32 noundef %8, ptr noundef nonnull @.str.1, ptr noundef nonnull %3, ptr noundef %9) #10
  %11 = icmp eq i32 %10, -1
  br i1 %11, label %12, label %15

12:                                               ; preds = %2
  %13 = load ptr, ptr getelementptr inbounds (%struct._zend_executor_globals, ptr @executor_globals, i64 0, i32 50), align 8
  %14 = icmp ne ptr %13, null
  call void @llvm.assume(i1 %14)
  br label %48

15:                                               ; preds = %2
  %16 = load ptr, ptr %3, align 8
  %17 = load ptr, ptr %16, align 8
  %18 = getelementptr inbounds i8, ptr %17, i64 -88
  %19 = getelementptr inbounds i8, ptr %5, i64 -64
  %20 = load i32, ptr %19, align 8
  %21 = getelementptr inbounds i8, ptr %5, i64 -80
  %22 = load i32, ptr %21, align 8
  %23 = shl i32 %22, 2
  %24 = and i32 %23, 16
  %25 = xor i32 %24, 16
  %narrow = add nuw nsw i32 %25, 16
  %26 = zext nneg i32 %narrow to i64
  %.not25 = icmp eq i32 %20, 0
  br i1 %.not25, label %._crit_edge, label %.lr.ph.preheader

.lr.ph.preheader:                                 ; preds = %15
  %27 = getelementptr inbounds i8, ptr %5, i64 -72
  %28 = load ptr, ptr %27, align 8
  br label %.lr.ph

.lr.ph:                                           ; preds = %.lr.ph.preheader, %39
  %.027 = phi i32 [ %41, %39 ], [ %20, %.lr.ph.preheader ]
  %.02426 = phi ptr [ %40, %39 ], [ %28, %.lr.ph.preheader ]
  %29 = getelementptr inbounds i8, ptr %.02426, i64 8
  %30 = load i8, ptr %29, align 8
  %31 = icmp eq i8 %30, 0
  br i1 %31, label %39, label %32

32:                                               ; preds = %.lr.ph
  %33 = load ptr, ptr %.02426, align 8
  %34 = load ptr, ptr %33, align 8
  %35 = call fastcc zeroext i1 @spl_object_storage_contains(ptr noundef nonnull %18, ptr noundef %34)
  br i1 %35, label %39, label %36

36:                                               ; preds = %32
  %37 = load ptr, ptr %33, align 8
  %38 = call fastcc i32 @spl_object_storage_detach(ptr noundef nonnull %6, ptr noundef %37)
  br label %39

39:                                               ; preds = %32, %36, %.lr.ph
  %40 = getelementptr inbounds i8, ptr %.02426, i64 %26
  %41 = add i32 %.027, -1
  %.not = icmp eq i32 %41, 0
  br i1 %.not, label %._crit_edge, label %.lr.ph

._crit_edge:                                      ; preds = %39, %15
  %42 = getelementptr inbounds i8, ptr %5, i64 -24
  call void @zend_hash_internal_pointer_reset_ex(ptr noundef nonnull %6, ptr noundef nonnull %42) #10
  %43 = getelementptr inbounds i8, ptr %5, i64 -32
  store i64 0, ptr %43, align 8
  %44 = getelementptr inbounds i8, ptr %5, i64 -60
  %45 = load i32, ptr %44, align 4
  %46 = zext i32 %45 to i64
  store i64 %46, ptr %1, align 8
  %47 = getelementptr inbounds i8, ptr %1, i64 8
  store i32 4, ptr %47, align 8
  br label %48

48:                                               ; preds = %._crit_edge, %12
  ret void
}